; Function Attrs: inlinehint nounwind uwtable
define internal fastcc void @pmix_bfrops_base_tma_regattr_free(ptr noundef %0, i64 noundef %1, ptr noundef %2) unnamed_addr #4 {
  %.not = icmp eq ptr %0, null
  br i1 %.not, label %pmix_tma_free.exit, label %.preheader

.preheader:                                       ; preds = %3
  %.not37 = icmp eq i64 %1, 0
  br i1 %.not37, label %._crit_edge, label %.lr.ph

.lr.ph:                                           ; preds = %.preheader
  %.not.i.i = icmp eq ptr %2, null
  %4 = getelementptr inbounds nuw i8, ptr %2, i64 40
  br i1 %.not.i.i, label %.lr.ph.split.us, label %.lr.ph.split.split.split

.lr.ph.split.us:                                  ; preds = %.lr.ph, %pmix_bfrops_base_tma_regattr_destruct.exit.us
  %.010.us = phi i64 [ %14, %pmix_bfrops_base_tma_regattr_destruct.exit.us ], [ 0, %.lr.ph ]
  %5 = getelementptr inbounds nuw %struct.pmix_regattr_t, ptr %0, i64 %.010.us
  %6 = load ptr, ptr %5, align 8, !tbaa !143
  %.not.i9.us = icmp eq ptr %6, null
  br i1 %.not.i9.us, label %7, label %pmix_tma_free.exit.i.us

pmix_tma_free.exit.i.us:                          ; preds = %.lr.ph.split.us
  tail call void @free(ptr noundef nonnull %6) #17
  store ptr null, ptr %5, align 8, !tbaa !143
  br label %7

7:                                                ; preds = %pmix_tma_free.exit.i.us, %.lr.ph.split.us
  %8 = getelementptr inbounds nuw i8, ptr %5, i64 528
  %9 = load ptr, ptr %8, align 8, !tbaa !145
  %.not11.i.us = icmp eq ptr %9, null
  br i1 %.not11.i.us, label %pmix_bfrops_base_tma_regattr_destruct.exit.us, label %.preheader.i.i.us

.preheader.i.i.us:                                ; preds = %7
  %10 = load ptr, ptr %9, align 8, !tbaa !68
  %.not1013.i.i.us = icmp eq ptr %10, null
  br i1 %.not1013.i.i.us, label %pmix_bfrops_base_tma_argv_free.exit.i.us, label %pmix_tma_free.exit12.us.i.i.us

pmix_tma_free.exit12.us.i.i.us:                   ; preds = %.preheader.i.i.us, %pmix_tma_free.exit12.us.i.i.us
  %11 = phi ptr [ %13, %pmix_tma_free.exit12.us.i.i.us ], [ %10, %.preheader.i.i.us ]
  %.014.us.i.i.us = phi ptr [ %12, %pmix_tma_free.exit12.us.i.i.us ], [ %9, %.preheader.i.i.us ]
  tail call void @free(ptr noundef nonnull %11) #17
  %12 = getelementptr inbounds nuw i8, ptr %.014.us.i.i.us, i64 8
  %13 = load ptr, ptr %12, align 8, !tbaa !68
  %.not10.us.i.i.us = icmp eq ptr %13, null
  br i1 %.not10.us.i.i.us, label %pmix_bfrops_base_tma_argv_free.exit.i.us, label %pmix_tma_free.exit12.us.i.i.us, !llvm.loop !146

pmix_bfrops_base_tma_argv_free.exit.i.us:         ; preds = %pmix_tma_free.exit12.us.i.i.us, %.preheader.i.i.us
  tail call void @free(ptr noundef nonnull %9) #17
  store ptr null, ptr %8, align 8, !tbaa !145
  br label %pmix_bfrops_base_tma_regattr_destruct.exit.us

pmix_bfrops_base_tma_regattr_destruct.exit.us:    ; preds = %pmix_bfrops_base_tma_argv_free.exit.i.us, %7
  %14 = add nuw i64 %.010.us, 1
  %exitcond39.not = icmp eq i64 %14, %1
  br i1 %exitcond39.not, label %._crit_edge, label %.lr.ph.split.us, !llvm.loop !147

._crit_edge:                                      ; preds = %pmix_bfrops_base_tma_regattr_destruct.exit, %pmix_bfrops_base_tma_regattr_destruct.exit.us, %.preheader
  %.not.i = icmp eq ptr %2, null
  br i1 %.not.i, label %18, label %15

15:                                               ; preds = %._crit_edge
  %16 = getelementptr inbounds nuw i8, ptr %2, i64 40
  %17 = load ptr, ptr %16, align 8, !tbaa !38
  tail call void %17(ptr noundef nonnull %2, ptr noundef nonnull %0) #17
  br label %pmix_tma_free.exit

18:                                               ; preds = %._crit_edge
  tail call void @free(ptr noundef nonnull %0) #17
  br label %pmix_tma_free.exit

.lr.ph.split.split.split:                         ; preds = %.lr.ph, %pmix_bfrops_base_tma_regattr_destruct.exit
  %.010 = phi i64 [ %31, %pmix_bfrops_base_tma_regattr_destruct.exit ], [ 0, %.lr.ph ]
  %19 = getelementptr inbounds nuw %struct.pmix_regattr_t, ptr %0, i64 %.010
  %20 = load ptr, ptr %19, align 8, !tbaa !143
  %.not.i9 = icmp eq ptr %20, null
  br i1 %.not.i9, label %22, label %pmix_tma_free.exit.i

pmix_tma_free.exit.i:                             ; preds = %.lr.ph.split.split.split
  %21 = load ptr, ptr %4, align 8, !tbaa !38
  tail call void %21(ptr noundef nonnull %2, ptr noundef nonnull %20) #17
  store ptr null, ptr %19, align 8, !tbaa !143
  br label %22

22:                                               ; preds = %pmix_tma_free.exit.i, %.lr.ph.split.split.split
  %23 = getelementptr inbounds nuw i8, ptr %19, i64 528
  %24 = load ptr, ptr %23, align 8, !tbaa !145
  %.not11.i = icmp eq ptr %24, null
  br i1 %.not11.i, label %pmix_bfrops_base_tma_regattr_destruct.exit, label %.preheader.i.i

.preheader.i.i:                                   ; preds = %22
  %25 = load ptr, ptr %24, align 8, !tbaa !68
  %.not1013.i.i = icmp eq ptr %25, null
  br i1 %.not1013.i.i, label %._crit_edge.thread.i.i, label %pmix_tma_free.exit12.i.i

._crit_edge.thread.i.i:                           ; preds = %pmix_tma_free.exit12.i.i, %.preheader.i.i
  %26 = load ptr, ptr %4, align 8, !tbaa !38
  tail call void %26(ptr noundef nonnull %2, ptr noundef nonnull %24) #17
  store ptr null, ptr %23, align 8, !tbaa !145
  br label %pmix_bfrops_base_tma_regattr_destruct.exit

pmix_tma_free.exit12.i.i:                         ; preds = %.preheader.i.i, %pmix_tma_free.exit12.i.i
  %27 = phi ptr [ %30, %pmix_tma_free.exit12.i.i ], [ %25, %.preheader.i.i ]
  %.014.i.i = phi ptr [ %29, %pmix_tma_free.exit12.i.i ], [ %24, %.preheader.i.i ]
  %28 = load ptr, ptr %4, align 8, !tbaa !38
  tail call void %28(ptr noundef nonnull %2, ptr noundef nonnull %27) #17
  %29 = getelementptr inbounds nuw i8, ptr %.014.i.i, i64 8
  %30 = load ptr, ptr %29, align 8, !tbaa !68
  %.not10.i.i = icmp eq ptr %30, null
  br i1 %.not10.i.i, label %._crit_edge.thread.i.i, label %pmix_tma_free.exit12.i.i, !llvm.loop !146

pmix_bfrops_base_tma_regattr_destruct.exit:       ; preds = %22, %._crit_edge.thread.i.i
  %31 = add nuw i64 %.010, 1
  %exitcond.not = icmp eq i64 %31, %1
  br i1 %exitcond.not, label %._crit_edge, label %.lr.ph.split.split.split, !llvm.loop !147

pmix_tma_free.exit:                               ; preds = %18, %15, %3
  ret void
}